target datalayout = "e-m:e-p270:32:32-p271:32:32-p272:64:64-i64:64-i128:128-f80:128-n8:16:32:64-S128"
target triple = "x86_64-pc-linux-gnu"

@hf_fcs_platformname_len = internal global i32 0, align 4
@hf_fcs_platformname = internal global i32 0, align 4
@hf_fcs_platformaddr = internal global i32 0, align 4
@hf_fcfcs_num_mgmt_address_entries = internal global i32 0, align 4

; Function Attrs: nounwind uwtable
define internal void @dissect_fcfcs_gplml(ptr noundef %0, ptr noundef %1, i32 noundef %2) #0 {
  %4 = alloca ptr, align 8
  %5 = alloca ptr, align 8
  %6 = alloca i32, align 4
  %7 = alloca i32, align 4
  %8 = alloca i32, align 4
  %9 = alloca i32, align 4
  %10 = alloca i32, align 4
  store ptr %0, ptr %4, align 8
  store ptr %1, ptr %5, align 8
  store i32 %2, ptr %6, align 4
  store i32 16, ptr %7, align 4
  %11 = load ptr, ptr %5, align 8
  %12 = icmp ne ptr %11, null
  br i1 %12, label %13, label %59

13:                                               ; preds = %3
  %14 = load i32, ptr %6, align 4
  %15 = icmp ne i32 %14, 0
  br i1 %15, label %16, label %34

16:                                               ; preds = %13
  %17 = load ptr, ptr %4, align 8
  %18 = load i32, ptr %7, align 4
  %19 = call zeroext i8 @tvb_get_guint8(ptr noundef %17, i32 noundef %18)
  %20 = zext i8 %19 to i32
  store i32 %20, ptr %10, align 4
  %21 = load ptr, ptr %5, align 8
  %22 = load i32, ptr @hf_fcs_platformname_len, align 4
  %23 = load ptr, ptr %4, align 8
  %24 = load i32, ptr %7, align 4
  %25 = load i32, ptr %10, align 4
  %26 = call ptr @proto_tree_add_uint(ptr noundef %21, i32 noundef %22, ptr noundef %23, i32 noundef %24, i32 noundef 1, i32 noundef %25)
  %27 = load ptr, ptr %5, align 8
  %28 = load i32, ptr @hf_fcs_platformname, align 4
  %29 = load ptr, ptr %4, align 8
  %30 = load i32, ptr %7, align 4
  %31 = add i32 %30, 1
  %32 = load i32, ptr %10, align 4
  %33 = call ptr @proto_tree_add_item(ptr noundef %27, i32 noundef %28, ptr noundef %29, i32 noundef %31, i32 noundef %32, i32 noundef 0)
  br label %58

34:                                               ; preds = %13
  %35 = load ptr, ptr %5, align 8
  %36 = load i32, ptr @hf_fcfcs_num_mgmt_address_entries, align 4
  %37 = load ptr, ptr %4, align 8
  %38 = load i32, ptr %7, align 4
  %39 = call ptr @proto_tree_add_item_ret_uint(ptr noundef %35, i32 noundef %36, ptr noundef %37, i32 noundef %38, i32 noundef 4, i32 noundef 0, ptr noundef %8)
  %40 = load i32, ptr %7, align 4
  %41 = add i32 %40, 4
  store i32 %41, ptr %7, align 4
  store i32 0, ptr %9, align 4
  br label %42

42:                                               ; preds = %54, %34
  %43 = load i32, ptr %9, align 4
  %44 = load i32, ptr %8, align 4
  %45 = icmp ult i32 %43, %44
  br i1 %45, label %46, label %57

46:                                               ; preds = %42
  %47 = load ptr, ptr %5, align 8
  %48 = load i32, ptr @hf_fcs_platformaddr, align 4
  %49 = load ptr, ptr %4, align 8
  %50 = load i32, ptr %7, align 4
  %51 = call ptr @proto_tree_add_item(ptr noundef %47, i32 noundef %48, ptr noundef %49, i32 noundef %50, i32 noundef 1, i32 noundef 0)
  %52 = load i32, ptr %7, align 4
  %53 = add i32 %52, 256
  store i32 %53, ptr %7, align 4
  br label %54

54:                                               ; preds = %46
  %55 = load i32, ptr %9, align 4
  %56 = add i32 %55, 1
  store i32 %56, ptr %9, align 4
  br label %42, !llvm.loop !11

57:                                               ; preds = %42
  br label %58

58:                                               ; preds = %57, %16
  br label %59

59:                                               ; preds = %58, %3
  ret void
}